; Function Attrs: mustprogress nofree norecurse nosync nounwind willreturn memory(read, argmem: readwrite, inaccessiblemem: none) uwtable
define dso_local range(i32 -1, 1) i32 @php_output_get_length(ptr noundef writeonly captures(none) initializes((8, 12)) %0) local_unnamed_addr #9 {
  %2 = load ptr, ptr getelementptr inbounds nuw (i8, ptr @output_globals, i64 24), align 8, !tbaa !46
  %.not = icmp eq ptr %2, null
  br i1 %.not, label %6, label %3

3:                                                ; preds = %1
  %4 = getelementptr inbounds nuw i8, ptr %2, i64 40
  %5 = load i64, ptr %4, align 8, !tbaa !64
  store i64 %5, ptr %0, align 8, !tbaa !8
  br label %6

6:                                                ; preds = %1, %3
  %.sink = phi i32 [ 4, %3 ], [ 1, %1 ]
  %.0 = phi i32 [ 0, %3 ], [ -1, %1 ]
  %7 = getelementptr inbounds nuw i8, ptr %0, i64 8
  store i32 %.sink, ptr %7, align 8, !tbaa !8
  ret i32 %.0
}